target datalayout = "e-m:e-p270:32:32-p271:32:32-p272:64:64-i64:64-i128:128-f80:128-n8:16:32:64-S128"
target triple = "x86_64-pc-linux-gnu"

%struct.H5P_iter_ud_t = type { ptr, i64, ptr }
%struct.H5P_genprop_t = type { ptr, i64, ptr, i32, i8, ptr, ptr, ptr, ptr, ptr, ptr, ptr, ptr, ptr }

; Function Attrs: nounwind uwtable
define internal i32 @H5P__iterate_cb(ptr noundef %0, ptr noundef %1) #0 {
  %3 = alloca ptr, align 8
  %4 = alloca ptr, align 8
  %5 = alloca ptr, align 8
  %6 = alloca i32, align 4
  store ptr %0, ptr %3, align 8
  store ptr %1, ptr %4, align 8
  %7 = load ptr, ptr %4, align 8
  store ptr %7, ptr %5, align 8
  store i32 0, ptr %6, align 4
  %8 = load ptr, ptr %5, align 8
  %9 = getelementptr inbounds %struct.H5P_iter_ud_t, ptr %8, i32 0, i32 0
  %10 = load ptr, ptr %9, align 8
  %11 = load ptr, ptr %5, align 8
  %12 = getelementptr inbounds %struct.H5P_iter_ud_t, ptr %11, i32 0, i32 1
  %13 = load i64, ptr %12, align 8
  %14 = load ptr, ptr %3, align 8
  %15 = getelementptr inbounds %struct.H5P_genprop_t, ptr %14, i32 0, i32 0
  %16 = load ptr, ptr %15, align 8
  %17 = load ptr, ptr %5, align 8
  %18 = getelementptr inbounds %struct.H5P_iter_ud_t, ptr %17, i32 0, i32 2
  %19 = load ptr, ptr %18, align 8
  %20 = call i32 %10(i64 noundef %13, ptr noundef %16, ptr noundef %19)
  store i32 %20, ptr %6, align 4
  %21 = load i32, ptr %6, align 4
  ret i32 %21
}