; Function Attrs: nounwind uwtable
define internal i32 @H5P__iterate_cb(ptr nocapture noundef readonly %0, ptr nocapture noundef readonly %1) #0 {
  %3 = load ptr, ptr %1, align 8
  %4 = getelementptr inbounds i8, ptr %1, i64 8
  %5 = load i64, ptr %4, align 8
  %6 = load ptr, ptr %0, align 8
  %7 = getelementptr inbounds i8, ptr %1, i64 16
  %8 = load ptr, ptr %7, align 8
  %9 = tail call i32 %3(i64 noundef %5, ptr noundef %6, ptr noundef %8) #2
  ret i32 %9
}